target datalayout = "e-m:e-p270:32:32-p271:32:32-p272:64:64-i64:64-i128:128-f80:128-n8:16:32:64-S128"
target triple = "x86_64-unknown-linux-gnu"

%"class.std::__shared_count" = type { ptr }
%"class.cvc5::Sort" = type { ptr, %"class.std::shared_ptr.92" }
%"class.std::shared_ptr.92" = type { %"class.std::__shared_ptr.93" }
%"class.std::__shared_ptr.93" = type { ptr, %"class.std::__shared_count" }

; Function Attrs: mustprogress uwtable
define noundef i32 @_ZN4cvc56parser11ParserState18getKindForFunctionENS_4TermE(ptr noundef nonnull align 8 dereferenceable(168) %this, ptr noundef %fun) #4 align 2 personality ptr @__gxx_personality_v0 {
entry:
  %retval = alloca i32, align 4
  %this.addr = alloca ptr, align 8
  %fun.indirect_addr = alloca ptr, align 8
  %t = alloca %"class.cvc5::Sort", align 8
  %exn.slot = alloca ptr, align 8
  %ehselector.slot = alloca i32, align 4
  %cleanup.dest.slot = alloca i32, align 4
  store ptr %this, ptr %this.addr, align 8
  store ptr %fun, ptr %fun.indirect_addr, align 8
  call void @_ZNK4cvc54Term7getSortEv(ptr sret(%"class.cvc5::Sort") align 8 %t, ptr noundef nonnull align 8 dereferenceable(24) %fun)
  %call = invoke noundef zeroext i1 @_ZNK4cvc54Sort10isFunctionEv(ptr noundef nonnull align 8 dereferenceable(24) %t)
          to label %invoke.cont unwind label %lpad

invoke.cont:                                      ; preds = %entry
  br i1 %call, label %if.then, label %if.else

if.then:                                          ; preds = %invoke.cont
  store i32 16, ptr %retval, align 4
  store i32 1, ptr %cleanup.dest.slot, align 4
  br label %cleanup

lpad:                                             ; preds = %if.else13, %if.else9, %if.else5, %if.else, %entry
  %0 = landingpad { ptr, i32 }
          cleanup
  %1 = extractvalue { ptr, i32 } %0, 0
  store ptr %1, ptr %exn.slot, align 8
  %2 = extractvalue { ptr, i32 } %0, 1
  store i32 %2, ptr %ehselector.slot, align 4
  call void @_ZN4cvc54SortD1Ev(ptr noundef nonnull align 8 dereferenceable(24) %t) #3
  br label %eh.resume

if.else:                                          ; preds = %invoke.cont
  %call3 = invoke noundef zeroext i1 @_ZNK4cvc54Sort21isDatatypeConstructorEv(ptr noundef nonnull align 8 dereferenceable(24) %t)
          to label %invoke.cont2 unwind label %lpad

invoke.cont2:                                     ; preds = %if.else
  br i1 %call3, label %if.then4, label %if.else5

if.then4:                                         ; preds = %invoke.cont2
  store i32 150, ptr %retval, align 4
  store i32 1, ptr %cleanup.dest.slot, align 4
  br label %cleanup

if.else5:                                         ; preds = %invoke.cont2
  %call7 = invoke noundef zeroext i1 @_ZNK4cvc54Sort18isDatatypeSelectorEv(ptr noundef nonnull align 8 dereferenceable(24) %t)
          to label %invoke.cont6 unwind label %lpad

invoke.cont6:                                     ; preds = %if.else5
  br i1 %call7, label %if.then8, label %if.else9

if.then8:                                         ; preds = %invoke.cont6
  store i32 151, ptr %retval, align 4
  store i32 1, ptr %cleanup.dest.slot, align 4
  br label %cleanup

if.else9:                                         ; preds = %invoke.cont6
  %call11 = invoke noundef zeroext i1 @_ZNK4cvc54Sort16isDatatypeTesterEv(ptr noundef nonnull align 8 dereferenceable(24) %t)
          to label %invoke.cont10 unwind label %lpad

invoke.cont10:                                    ; preds = %if.else9
  br i1 %call11, label %if.then12, label %if.else13

if.then12:                                        ; preds = %invoke.cont10
  store i32 152, ptr %retval, align 4
  store i32 1, ptr %cleanup.dest.slot, align 4
  br label %cleanup

if.else13:                                        ; preds = %invoke.cont10
  %call15 = invoke noundef zeroext i1 @_ZNK4cvc54Sort17isDatatypeUpdaterEv(ptr noundef nonnull align 8 dereferenceable(24) %t)
          to label %invoke.cont14 unwind label %lpad

invoke.cont14:                                    ; preds = %if.else13
  br i1 %call15, label %if.then16, label %if.end

if.then16:                                        ; preds = %invoke.cont14
  store i32 153, ptr %retval, align 4
  store i32 1, ptr %cleanup.dest.slot, align 4
  br label %cleanup

if.end:                                           ; preds = %invoke.cont14
  br label %if.end17

if.end17:                                         ; preds = %if.end
  br label %if.end18

if.end18:                                         ; preds = %if.end17
  br label %if.end19

if.end19:                                         ; preds = %if.end18
  br label %if.end20

if.end20:                                         ; preds = %if.end19
  store i32 -1, ptr %retval, align 4
  store i32 1, ptr %cleanup.dest.slot, align 4
  br label %cleanup

cleanup:                                          ; preds = %if.end20, %if.then16, %if.then12, %if.then8, %if.then4, %if.then
  call void @_ZN4cvc54SortD1Ev(ptr noundef nonnull align 8 dereferenceable(24) %t) #3
  %3 = load i32, ptr %retval, align 4
  ret i32 %3

eh.resume:                                        ; preds = %lpad
  %exn = load ptr, ptr %exn.slot, align 8
  %sel = load i32, ptr %ehselector.slot, align 4
  %lpad.val = insertvalue { ptr, i32 } poison, ptr %exn, 0
  %lpad.val21 = insertvalue { ptr, i32 } %lpad.val, i32 %sel, 1
  resume { ptr, i32 } %lpad.val21
}