; Function Attrs: mustprogress uwtable
define noundef i32 @_ZN4cvc56parser11ParserState18getKindForFunctionENS_4TermE(ptr nocapture noundef nonnull readnone align 8 dereferenceable(168) %this, ptr noundef nonnull %fun) local_unnamed_addr #3 align 2 personality ptr @__gxx_personality_v0 {
entry:
  %t = alloca %"class.cvc5::Sort", align 8
  call void @_ZNK4cvc54Term7getSortEv(ptr nonnull sret(%"class.cvc5::Sort") align 8 %t, ptr noundef nonnull align 8 dereferenceable(24) %fun)
  %call = invoke noundef zeroext i1 @_ZNK4cvc54Sort10isFunctionEv(ptr noundef nonnull align 8 dereferenceable(24) %t)
          to label %invoke.cont unwind label %lpad

invoke.cont:                                      ; preds = %entry
  br i1 %call, label %cleanup, label %if.else

lpad:                                             ; preds = %if.else13, %if.else9, %if.else5, %if.else, %entry
  %0 = landingpad { ptr, i32 }
          cleanup
  call void @_ZN4cvc54SortD1Ev(ptr noundef nonnull align 8 dereferenceable(24) %t) #23
  resume { ptr, i32 } %0

if.else:                                          ; preds = %invoke.cont
  %call3 = invoke noundef zeroext i1 @_ZNK4cvc54Sort21isDatatypeConstructorEv(ptr noundef nonnull align 8 dereferenceable(24) %t)
          to label %invoke.cont2 unwind label %lpad

invoke.cont2:                                     ; preds = %if.else
  br i1 %call3, label %cleanup, label %if.else5

if.else5:                                         ; preds = %invoke.cont2
  %call7 = invoke noundef zeroext i1 @_ZNK4cvc54Sort18isDatatypeSelectorEv(ptr noundef nonnull align 8 dereferenceable(24) %t)
          to label %invoke.cont6 unwind label %lpad

invoke.cont6:                                     ; preds = %if.else5
  br i1 %call7, label %cleanup, label %if.else9

if.else9:                                         ; preds = %invoke.cont6
  %call11 = invoke noundef zeroext i1 @_ZNK4cvc54Sort16isDatatypeTesterEv(ptr noundef nonnull align 8 dereferenceable(24) %t)
          to label %invoke.cont10 unwind label %lpad

invoke.cont10:                                    ; preds = %if.else9
  br i1 %call11, label %cleanup, label %if.else13

if.else13:                                        ; preds = %invoke.cont10
  %call15 = invoke noundef zeroext i1 @_ZNK4cvc54Sort17isDatatypeUpdaterEv(ptr noundef nonnull align 8 dereferenceable(24) %t)
          to label %invoke.cont14 unwind label %lpad

invoke.cont14:                                    ; preds = %if.else13
  %. = select i1 %call15, i32 153, i32 -1
  br label %cleanup

cleanup:                                          ; preds = %invoke.cont14, %invoke.cont10, %invoke.cont6, %invoke.cont2, %invoke.cont
  %retval.0 = phi i32 [ 16, %invoke.cont ], [ 150, %invoke.cont2 ], [ 151, %invoke.cont6 ], [ 152, %invoke.cont10 ], [ %., %invoke.cont14 ]
  call void @_ZN4cvc54SortD1Ev(ptr noundef nonnull align 8 dereferenceable(24) %t) #23
  ret i32 %retval.0
}